; Function Attrs: inlinehint mustprogress nounwind uwtable
define internal fastcc void @"_ZZN17grpc_event_engine12experimental12AresResolver14LookupHostnameEN4absl12lts_2024072212AnyInvocableIFvNS3_8StatusOrISt6vectorINS0_11EventEngine15ResolvedAddressESaIS8_EEEEEEESt17basic_string_viewIcSt11char_traitsIcEESH_EN3$_4D2Ev"(ptr noundef nonnull align 16 dereferenceable(56) %0) unnamed_addr #8 align 2 personality ptr @__gxx_personality_v0 {
  %2 = getelementptr inbounds nuw i8, ptr %0, i64 32
  %3 = load ptr, ptr %2, align 16, !tbaa !123
  %.not.i.i.i = icmp eq ptr %3, null
  br i1 %.not.i.i.i, label %_ZNSt6vectorIN17grpc_event_engine12experimental11EventEngine15ResolvedAddressESaIS3_EED2Ev.exit, label %4

4:                                                ; preds = %1
  %5 = getelementptr inbounds nuw i8, ptr %0, i64 48
  %6 = load ptr, ptr %5, align 16, !tbaa !127
  %7 = ptrtoint ptr %6 to i64
  %8 = ptrtoint ptr %3 to i64
  %9 = sub i64 %7, %8
  tail call void @_ZdlPvm(ptr noundef nonnull %3, i64 noundef %9) #38
  br label %_ZNSt6vectorIN17grpc_event_engine12experimental11EventEngine15ResolvedAddressESaIS3_EED2Ev.exit

_ZNSt6vectorIN17grpc_event_engine12experimental11EventEngine15ResolvedAddressESaIS3_EED2Ev.exit: ; preds = %1, %4
  %10 = getelementptr inbounds nuw i8, ptr %0, i64 16
  %11 = load ptr, ptr %10, align 16, !tbaa !108
  tail call void %11(i1 noundef zeroext true, ptr noundef nonnull align 16 dereferenceable(32) %0, ptr noundef nonnull align 16 dereferenceable(32) %0) #34
  ret void
}